; ModuleID = 'bench/linux/original/ptdump.ll'
source_filename = "bench/linux/original/ptdump.ll"
target datalayout = "e-m:e-p270:32:32-p271:32:32-p272:64:64-i64:64-i128:128-f80:128-n8:16:32:64-S128"
target triple = "x86_64-unknown-linux-gnu"

%struct.mm_walk_ops = type { ptr, ptr, ptr, ptr, ptr, ptr, ptr, ptr, ptr, ptr, i32 }
%struct.tracepoint = type { ptr, %struct.static_key, ptr, ptr, ptr, ptr, ptr, ptr, ptr }
%struct.static_key = type { %struct.atomic_t, %union.anon.5 }
%struct.atomic_t = type { i32 }
%union.anon.5 = type { i64 }

@ptdump_ops = internal constant %struct.mm_walk_ops { ptr @ptdump_pgd_entry, ptr @ptdump_p4d_entry, ptr @ptdump_pud_entry, ptr @ptdump_pmd_entry, ptr @ptdump_pte_entry, ptr @ptdump_hole, ptr null, ptr null, ptr null, ptr null, i32 0 }, align 8
@__tracepoint_mmap_lock_start_locking = external dso_local global %struct.tracepoint, align 8
@__tracepoint_mmap_lock_acquire_returned = external dso_local global %struct.tracepoint, align 8
@__tracepoint_mmap_lock_released = external dso_local global %struct.tracepoint, align 8

; Function Attrs: fn_ret_thunk_extern nounwind null_pointer_is_valid
define dso_local void @ptdump_walk_pgd(ptr noundef %0, ptr noundef %1, ptr noundef %2) local_unnamed_addr #0 align 16 {
  %4 = getelementptr inbounds i8, ptr %0, i64 16
  %5 = load ptr, ptr %4, align 8
  callbr void asm sideeffect "1:jmp ${2:l} # objtool NOPs this \0A\09.pushsection __jump_table,  \22aw\22 \0A\09 .balign 8 \0A\09.long 1b - . \0A\09.long ${2:l} - . \0A\09 .quad ${0:c} + ${1:c} - .\0A\09.popsection \0A\09", "i,i,!i,~{dirflag},~{fpsr},~{flags}"(ptr nonnull getelementptr inbounds (%struct.tracepoint, ptr @__tracepoint_mmap_lock_start_locking, i64 0, i32 1), i32 2) #3
          to label %7 [label %6], !srcloc !5

6:                                                ; preds = %3
  tail call void @__mmap_lock_do_trace_start_locking(ptr noundef %1, i1 noundef zeroext true) #3
  br label %7

7:                                                ; preds = %6, %3
  %8 = getelementptr inbounds i8, ptr %1, i64 176
  tail call void @down_write(ptr noundef %8) #3
  callbr void asm sideeffect "1:jmp ${2:l} # objtool NOPs this \0A\09.pushsection __jump_table,  \22aw\22 \0A\09 .balign 8 \0A\09.long 1b - . \0A\09.long ${2:l} - . \0A\09 .quad ${0:c} + ${1:c} - .\0A\09.popsection \0A\09", "i,i,!i,~{dirflag},~{fpsr},~{flags}"(ptr nonnull getelementptr inbounds (%struct.tracepoint, ptr @__tracepoint_mmap_lock_acquire_returned, i64 0, i32 1), i32 2) #3
          to label %10 [label %9], !srcloc !5

9:                                                ; preds = %7
  tail call void @__mmap_lock_do_trace_acquire_returned(ptr noundef %1, i1 noundef zeroext true, i1 noundef zeroext true) #3
  br label %10

10:                                               ; preds = %9, %7
  %11 = load i64, ptr %5, align 8
  %12 = getelementptr inbounds i8, ptr %5, i64 8
  %13 = load i64, ptr %12, align 8
  %14 = icmp eq i64 %11, %13
  br i1 %14, label %.loopexit, label %.preheader

.preheader:                                       ; preds = %10, %.preheader
  %15 = phi i64 [ %22, %.preheader ], [ %13, %10 ]
  %16 = phi i64 [ %20, %.preheader ], [ %11, %10 ]
  %17 = phi ptr [ %19, %.preheader ], [ %5, %10 ]
  %18 = tail call i32 @walk_page_range_novma(ptr noundef %1, i64 noundef %16, i64 noundef %15, ptr noundef nonnull @ptdump_ops, ptr noundef %2, ptr noundef %0) #3
  %19 = getelementptr i8, ptr %17, i64 16
  %20 = load i64, ptr %19, align 8
  %21 = getelementptr i8, ptr %17, i64 24
  %22 = load i64, ptr %21, align 8
  %23 = icmp eq i64 %20, %22
  br i1 %23, label %.loopexit, label %.preheader, !llvm.loop !6

.loopexit:                                        ; preds = %.preheader, %10
  callbr void asm sideeffect "1:jmp ${2:l} # objtool NOPs this \0A\09.pushsection __jump_table,  \22aw\22 \0A\09 .balign 8 \0A\09.long 1b - . \0A\09.long ${2:l} - . \0A\09 .quad ${0:c} + ${1:c} - .\0A\09.popsection \0A\09", "i,i,!i,~{dirflag},~{fpsr},~{flags}"(ptr nonnull getelementptr inbounds (%struct.tracepoint, ptr @__tracepoint_mmap_lock_released, i64 0, i32 1), i32 2) #3
          to label %25 [label %24], !srcloc !5

24:                                               ; preds = %.loopexit
  tail call void @__mmap_lock_do_trace_released(ptr noundef %1, i1 noundef zeroext true) #3
  br label %25

25:                                               ; preds = %24, %.loopexit
  tail call void asm sideeffect "", "~{memory},~{dirflag},~{fpsr},~{flags}"() #3, !srcloc !9
  %26 = getelementptr inbounds i8, ptr %1, i64 232
  %27 = load i32, ptr %26, align 8
  %28 = add i32 %27, 1
  store volatile i32 %28, ptr %26, align 8
  tail call void @up_write(ptr noundef %8) #3
  %29 = load ptr, ptr %0, align 8
  tail call void %29(ptr noundef %0, i64 noundef 0, i32 noundef -1, i64 noundef 0) #3
  ret void
}

; Function Attrs: mustprogress nocallback nofree nosync nounwind willreturn memory(argmem: readwrite)
declare void @llvm.lifetime.start.p0(i64 immarg, ptr nocapture) #1

; Function Attrs: null_pointer_is_valid
declare dso_local i32 @walk_page_range_novma(ptr noundef, i64 noundef, i64 noundef, ptr noundef, ptr noundef, ptr noundef) local_unnamed_addr #2

; Function Attrs: mustprogress nocallback nofree nosync nounwind willreturn memory(argmem: readwrite)
declare void @llvm.lifetime.end.p0(i64 immarg, ptr nocapture) #1

; Function Attrs: null_pointer_is_valid
declare dso_local void @down_write(ptr noundef) local_unnamed_addr #2

; Function Attrs: null_pointer_is_valid
declare dso_local void @__mmap_lock_do_trace_start_locking(ptr noundef, i1 noundef zeroext) local_unnamed_addr #2

; Function Attrs: null_pointer_is_valid
declare dso_local void @__mmap_lock_do_trace_acquire_returned(ptr noundef, i1 noundef zeroext, i1 noundef zeroext) local_unnamed_addr #2

; Function Attrs: fn_ret_thunk_extern nounwind null_pointer_is_valid
define internal noundef i32 @ptdump_pgd_entry(ptr noundef %0, i64 %1, i64 %2, ptr nocapture noundef readonly %3) #0 align 16 {
  %5 = alloca i64, align 8
  %6 = getelementptr inbounds i8, ptr %3, i64 40
  %7 = load ptr, ptr %6, align 8
  call void @llvm.lifetime.start.p0(i64 8, ptr nonnull %5)
  %8 = load volatile i64, ptr %0, align 8
  store volatile i64 %8, ptr %5, align 8
  %9 = getelementptr inbounds i8, ptr %7, i64 8
  %10 = load ptr, ptr %9, align 8
  %11 = icmp eq ptr %10, null
  br i1 %11, label %13, label %12

12:                                               ; preds = %4
  tail call void %10(ptr noundef %7, i32 noundef 0, i64 noundef %8) #3
  br label %13

13:                                               ; preds = %12, %4
  call void @llvm.lifetime.end.p0(i64 8, ptr nonnull %5)
  ret i32 0
}

; Function Attrs: fn_ret_thunk_extern nounwind null_pointer_is_valid
define internal noundef i32 @ptdump_p4d_entry(ptr noundef %0, i64 %1, i64 %2, ptr nocapture noundef readonly %3) #0 align 16 {
  %5 = alloca i64, align 8
  %6 = getelementptr inbounds i8, ptr %3, i64 40
  %7 = load ptr, ptr %6, align 8
  call void @llvm.lifetime.start.p0(i64 8, ptr nonnull %5)
  %8 = load volatile i64, ptr %0, align 8
  store volatile i64 %8, ptr %5, align 8
  %9 = getelementptr inbounds i8, ptr %7, i64 8
  %10 = load ptr, ptr %9, align 8
  %11 = icmp eq ptr %10, null
  br i1 %11, label %13, label %12

12:                                               ; preds = %4
  tail call void %10(ptr noundef %7, i32 noundef 1, i64 noundef %8) #3
  br label %13

13:                                               ; preds = %12, %4
  call void @llvm.lifetime.end.p0(i64 8, ptr nonnull %5)
  ret i32 0
}

; Function Attrs: fn_ret_thunk_extern nounwind null_pointer_is_valid
define internal noundef i32 @ptdump_pud_entry(ptr noundef %0, i64 noundef %1, i64 %2, ptr nocapture noundef %3) #0 align 16 {
  %5 = alloca i64, align 8
  %6 = getelementptr inbounds i8, ptr %3, i64 40
  %7 = load ptr, ptr %6, align 8
  call void @llvm.lifetime.start.p0(i64 8, ptr nonnull %5)
  %8 = load volatile i64, ptr %0, align 8
  store volatile i64 %8, ptr %5, align 8
  %9 = getelementptr inbounds i8, ptr %7, i64 8
  %10 = load ptr, ptr %9, align 8
  %11 = icmp eq ptr %10, null
  br i1 %11, label %13, label %12

12:                                               ; preds = %4
  tail call void %10(ptr noundef %7, i32 noundef 2, i64 noundef %8) #3
  br label %13

13:                                               ; preds = %12, %4
  %14 = and i64 %8, 129
  %15 = icmp eq i64 %14, 129
  br i1 %15, label %16, label %19

16:                                               ; preds = %13
  %17 = load ptr, ptr %7, align 8
  tail call void %17(ptr noundef %7, i64 noundef %1, i32 noundef 2, i64 noundef %8) #3
  %18 = getelementptr inbounds i8, ptr %3, i64 32
  store i32 1, ptr %18, align 8
  br label %19

19:                                               ; preds = %16, %13
  call void @llvm.lifetime.end.p0(i64 8, ptr nonnull %5)
  ret i32 0
}

; Function Attrs: fn_ret_thunk_extern nounwind null_pointer_is_valid
define internal noundef i32 @ptdump_pmd_entry(ptr noundef %0, i64 noundef %1, i64 %2, ptr nocapture noundef %3) #0 align 16 {
  %5 = alloca i64, align 8
  %6 = getelementptr inbounds i8, ptr %3, i64 40
  %7 = load ptr, ptr %6, align 8
  call void @llvm.lifetime.start.p0(i64 8, ptr nonnull %5)
  %8 = load volatile i64, ptr %0, align 8
  store volatile i64 %8, ptr %5, align 8
  %9 = getelementptr inbounds i8, ptr %7, i64 8
  %10 = load ptr, ptr %9, align 8
  %11 = icmp eq ptr %10, null
  br i1 %11, label %13, label %12

12:                                               ; preds = %4
  tail call void %10(ptr noundef %7, i32 noundef 3, i64 noundef %8) #3
  br label %13

13:                                               ; preds = %12, %4
  %14 = and i64 %8, 128
  %15 = icmp eq i64 %14, 0
  br i1 %15, label %19, label %16

16:                                               ; preds = %13
  %17 = load ptr, ptr %7, align 8
  tail call void %17(ptr noundef %7, i64 noundef %1, i32 noundef 3, i64 noundef %8) #3
  %18 = getelementptr inbounds i8, ptr %3, i64 32
  store i32 1, ptr %18, align 8
  br label %19

19:                                               ; preds = %16, %13
  call void @llvm.lifetime.end.p0(i64 8, ptr nonnull %5)
  ret i32 0
}

; Function Attrs: fn_ret_thunk_extern nounwind null_pointer_is_valid
define internal noundef i32 @ptdump_pte_entry(ptr noundef %0, i64 noundef %1, i64 %2, ptr nocapture noundef readonly %3) #0 align 16 {
  %5 = alloca i64, align 8
  %6 = getelementptr inbounds i8, ptr %3, i64 40
  %7 = load ptr, ptr %6, align 8
  call void @llvm.lifetime.start.p0(i64 8, ptr nonnull %5)
  %8 = load volatile i64, ptr %0, align 8
  store volatile i64 %8, ptr %5, align 8
  call void @llvm.lifetime.end.p0(i64 8, ptr nonnull %5)
  %9 = getelementptr inbounds i8, ptr %7, i64 8
  %10 = load ptr, ptr %9, align 8
  %11 = icmp eq ptr %10, null
  br i1 %11, label %13, label %12

12:                                               ; preds = %4
  tail call void %10(ptr noundef %7, i32 noundef 4, i64 noundef %8) #3
  br label %13

13:                                               ; preds = %12, %4
  %14 = load ptr, ptr %7, align 8
  tail call void %14(ptr noundef %7, i64 noundef %1, i32 noundef 4, i64 noundef %8) #3
  ret i32 0
}

; Function Attrs: fn_ret_thunk_extern nounwind null_pointer_is_valid
define internal noundef i32 @ptdump_hole(i64 noundef %0, i64 %1, i32 noundef %2, ptr nocapture noundef readonly %3) #0 align 16 {
  %5 = getelementptr inbounds i8, ptr %3, i64 40
  %6 = load ptr, ptr %5, align 8
  %7 = load ptr, ptr %6, align 8
  tail call void %7(ptr noundef %6, i64 noundef %0, i32 noundef %2, i64 noundef 0) #3
  ret i32 0
}

; Function Attrs: null_pointer_is_valid
declare dso_local void @up_write(ptr noundef) local_unnamed_addr #2

; Function Attrs: null_pointer_is_valid
declare dso_local void @__mmap_lock_do_trace_released(ptr noundef, i1 noundef zeroext) local_unnamed_addr #2


!llvm.module.flags = !{!0, !1, !2, !3, !4}

!0 = !{i32 1, !"wchar_size", i32 2}
!1 = !{i32 8, !"cf-protection-branch", i32 1}
!2 = !{i32 4, !"function_return_thunk_extern", i32 1}
!3 = !{i32 4, !"indirect_branch_cs_prefix", i32 1}
!4 = !{i32 4, !"SkipRaxSetup", i32 1}
!5 = !{i64 810084, i64 810128, i64 2148297103, i64 2148297124, i64 2148297150, i64 2148297183, i64 2148297217, i64 2148297241}
!6 = distinct !{!6, !7, !8}
!7 = !{!"llvm.loop.mustprogress"}
!8 = !{!"llvm.loop.unroll.disable"}
!9 = !{i64 2151461333}
